; Function Attrs: nounwind uwtable
define ptr @Aig_ManDupPartAll(ptr noundef %0, ptr noundef readonly captures(none) %1) local_unnamed_addr #4 {
  tail call void @Aig_ManIncrementTravId(ptr noundef %0) #24
  %3 = tail call ptr @Aig_ManStart(i32 noundef 5000) #24
  %4 = getelementptr i8, ptr %0, i64 48
  %.val22 = load ptr, ptr %4, align 8, !tbaa !102
  %5 = getelementptr i8, ptr %3, i64 48
  %.val21 = load ptr, ptr %5, align 8, !tbaa !102
  %6 = getelementptr inbounds nuw i8, ptr %.val22, i64 40
  store ptr %.val21, ptr %6, align 8, !tbaa !51
  %7 = getelementptr inbounds nuw i8, ptr %.val21, i64 40
  store ptr %.val22, ptr %7, align 8, !tbaa !51
  %8 = getelementptr i8, ptr %0, i64 312
  %.val20 = load i32, ptr %8, align 8, !tbaa !100
  %9 = getelementptr inbounds nuw i8, ptr %.val22, i64 32
  store i32 %.val20, ptr %9, align 8, !tbaa !101
  %10 = getelementptr i8, ptr %1, i64 4
  %.val24 = load i32, ptr %10, align 4, !tbaa !33
  %11 = icmp sgt i32 %.val24, 0
  br i1 %11, label %.lr.ph, label %.critedge

.lr.ph:                                           ; preds = %2
  %12 = getelementptr i8, ptr %1, i64 8
  %13 = getelementptr i8, ptr %0, i64 24
  br label %14

14:                                               ; preds = %.lr.ph, %14
  %indvars.iv = phi i64 [ 0, %.lr.ph ], [ %indvars.iv.next, %14 ]
  %.val19 = load ptr, ptr %12, align 8, !tbaa !37
  %15 = getelementptr inbounds nuw i32, ptr %.val19, i64 %indvars.iv
  %16 = load i32, ptr %15, align 4, !tbaa !29
  %.val23 = load ptr, ptr %13, align 8, !tbaa !50
  %17 = getelementptr i8, ptr %.val23, i64 8
  %.val23.val = load ptr, ptr %17, align 8, !tbaa !15
  %18 = sext i32 %16 to i64
  %19 = getelementptr inbounds ptr, ptr %.val23.val, i64 %18
  %20 = load ptr, ptr %19, align 8, !tbaa !18
  tail call void @Aig_ManDupPartAll_rec(ptr noundef %3, ptr noundef nonnull %0, ptr noundef %20)
  %indvars.iv.next = add nuw nsw i64 %indvars.iv, 1
  %.val = load i32, ptr %10, align 4, !tbaa !33
  %21 = sext i32 %.val to i64
  %22 = icmp slt i64 %indvars.iv.next, %21
  br i1 %22, label %14, label %.critedge, !llvm.loop !107

.critedge:                                        ; preds = %14, %2
  ret ptr %3
}